target datalayout = "e-m:e-p270:32:32-p271:32:32-p272:64:64-i64:64-i128:128-f80:128-n8:16:32:64-S128"
target triple = "x86_64-pc-linux-gnu"

%"class.icu_77::UCharCharacterIterator" = type { %"class.icu_77::CharacterIterator", ptr }
%"class.icu_77::CharacterIterator" = type { %"class.icu_77::ForwardCharacterIterator", i32, i32, i32, i32 }
%"class.icu_77::ForwardCharacterIterator" = type { %"class.icu_77::UObject" }
%"class.icu_77::UObject" = type { ptr }

; Function Attrs: mustprogress nounwind uwtable
define noundef i32 @_ZN6icu_7722UCharCharacterIterator6last32Ev(ptr noundef nonnull align 8 dereferenceable(32) %0) unnamed_addr #0 align 2 {
  %2 = alloca i32, align 4
  %3 = alloca ptr, align 8
  %4 = alloca i32, align 4
  %5 = alloca i16, align 2
  store ptr %0, ptr %3, align 8, !tbaa !3
  %6 = load ptr, ptr %3, align 8
  %7 = getelementptr inbounds nuw %"class.icu_77::CharacterIterator", ptr %6, i32 0, i32 4
  %8 = load i32, ptr %7, align 4, !tbaa !25
  %9 = getelementptr inbounds nuw %"class.icu_77::CharacterIterator", ptr %6, i32 0, i32 2
  store i32 %8, ptr %9, align 4, !tbaa !23
  %10 = getelementptr inbounds nuw %"class.icu_77::CharacterIterator", ptr %6, i32 0, i32 2
  %11 = load i32, ptr %10, align 4, !tbaa !23
  %12 = getelementptr inbounds nuw %"class.icu_77::CharacterIterator", ptr %6, i32 0, i32 3
  %13 = load i32, ptr %12, align 8, !tbaa !24
  %14 = icmp sgt i32 %11, %13
  br i1 %14, label %15, label %62

15:                                               ; preds = %1
  call void @llvm.lifetime.start.p0(i64 4, ptr %4) #7
  br label %16

16:                                               ; preds = %15
  %17 = getelementptr inbounds nuw %"class.icu_77::UCharCharacterIterator", ptr %6, i32 0, i32 1
  %18 = load ptr, ptr %17, align 8, !tbaa !10
  %19 = getelementptr inbounds nuw %"class.icu_77::CharacterIterator", ptr %6, i32 0, i32 2
  %20 = load i32, ptr %19, align 4, !tbaa !23
  %21 = add nsw i32 %20, -1
  store i32 %21, ptr %19, align 4, !tbaa !23
  %22 = sext i32 %21 to i64
  %23 = getelementptr inbounds i16, ptr %18, i64 %22
  %24 = load i16, ptr %23, align 2, !tbaa !28
  %25 = zext i16 %24 to i32
  store i32 %25, ptr %4, align 4, !tbaa !19
  %26 = load i32, ptr %4, align 4, !tbaa !19
  %27 = and i32 %26, -1024
  %28 = icmp eq i32 %27, 56320
  br i1 %28, label %29, label %58

29:                                               ; preds = %16
  call void @llvm.lifetime.start.p0(i64 2, ptr %5) #7
  %30 = getelementptr inbounds nuw %"class.icu_77::CharacterIterator", ptr %6, i32 0, i32 2
  %31 = load i32, ptr %30, align 4, !tbaa !23
  %32 = getelementptr inbounds nuw %"class.icu_77::CharacterIterator", ptr %6, i32 0, i32 3
  %33 = load i32, ptr %32, align 8, !tbaa !24
  %34 = icmp sgt i32 %31, %33
  br i1 %34, label %35, label %57

35:                                               ; preds = %29
  %36 = getelementptr inbounds nuw %"class.icu_77::UCharCharacterIterator", ptr %6, i32 0, i32 1
  %37 = load ptr, ptr %36, align 8, !tbaa !10
  %38 = getelementptr inbounds nuw %"class.icu_77::CharacterIterator", ptr %6, i32 0, i32 2
  %39 = load i32, ptr %38, align 4, !tbaa !23
  %40 = sub nsw i32 %39, 1
  %41 = sext i32 %40 to i64
  %42 = getelementptr inbounds i16, ptr %37, i64 %41
  %43 = load i16, ptr %42, align 2, !tbaa !28
  store i16 %43, ptr %5, align 2, !tbaa !30
  %44 = zext i16 %43 to i32
  %45 = and i32 %44, -1024
  %46 = icmp eq i32 %45, 55296
  br i1 %46, label %47, label %57

47:                                               ; preds = %35
  %48 = getelementptr inbounds nuw %"class.icu_77::CharacterIterator", ptr %6, i32 0, i32 2
  %49 = load i32, ptr %48, align 4, !tbaa !23
  %50 = add nsw i32 %49, -1
  store i32 %50, ptr %48, align 4, !tbaa !23
  %51 = load i16, ptr %5, align 2, !tbaa !30
  %52 = zext i16 %51 to i32
  %53 = shl i32 %52, 10
  %54 = load i32, ptr %4, align 4, !tbaa !19
  %55 = add nsw i32 %53, %54
  %56 = sub nsw i32 %55, 56613888
  store i32 %56, ptr %4, align 4, !tbaa !19
  br label %57

57:                                               ; preds = %47, %35, %29
  call void @llvm.lifetime.end.p0(i64 2, ptr %5) #7
  br label %58

58:                                               ; preds = %57, %16
  br label %59

59:                                               ; preds = %58
  br label %60

60:                                               ; preds = %59
  %61 = load i32, ptr %4, align 4, !tbaa !19
  store i32 %61, ptr %2, align 4
  call void @llvm.lifetime.end.p0(i64 4, ptr %4) #7
  br label %63

62:                                               ; preds = %1
  store i32 65535, ptr %2, align 4
  br label %63

63:                                               ; preds = %62, %60
  %64 = load i32, ptr %2, align 4
  ret i32 %64
}