; Function Attrs: mustprogress nofree norecurse nosync nounwind willreturn memory(read, argmem: readwrite, inaccessiblemem: none) uwtable
define noundef range(i32 0, 10559488) i32 @_ZN6icu_7722UCharCharacterIterator6last32Ev(ptr noundef nonnull align 8 captures(none) dereferenceable(32) initializes((12, 16)) %0) unnamed_addr #7 align 2 {
  %2 = getelementptr inbounds nuw i8, ptr %0, i64 20
  %3 = load i32, ptr %2, align 4, !tbaa !24
  %4 = getelementptr inbounds nuw i8, ptr %0, i64 12
  store i32 %3, ptr %4, align 4, !tbaa !22
  %5 = getelementptr inbounds nuw i8, ptr %0, i64 16
  %6 = load i32, ptr %5, align 8, !tbaa !23
  %7 = icmp sgt i32 %3, %6
  br i1 %7, label %8, label %32

8:                                                ; preds = %1
  %9 = getelementptr inbounds nuw i8, ptr %0, i64 24
  %10 = load ptr, ptr %9, align 8, !tbaa !6
  %11 = add nsw i32 %3, -1
  store i32 %11, ptr %4, align 4, !tbaa !22
  %12 = sext i32 %11 to i64
  %13 = getelementptr inbounds i16, ptr %10, i64 %12
  %14 = load i16, ptr %13, align 2, !tbaa !25
  %15 = zext i16 %14 to i32
  %16 = and i32 %15, 64512
  %17 = icmp eq i32 %16, 56320
  %18 = icmp sgt i32 %11, %6
  %or.cond = and i1 %18, %17
  br i1 %or.cond, label %19, label %32

19:                                               ; preds = %8
  %20 = sext i32 %3 to i64
  %21 = getelementptr i16, ptr %10, i64 %20
  %22 = getelementptr i8, ptr %21, i64 -4
  %23 = load i16, ptr %22, align 2, !tbaa !25
  %24 = zext i16 %23 to i32
  %25 = and i32 %24, 64512
  %26 = icmp eq i32 %25, 55296
  br i1 %26, label %27, label %32

27:                                               ; preds = %19
  %28 = add nsw i32 %3, -2
  store i32 %28, ptr %4, align 4, !tbaa !22
  %29 = shl nuw nsw i32 %24, 10
  %30 = add nuw nsw i32 %15, -56613888
  %31 = add nsw i32 %30, %29
  br label %32

32:                                               ; preds = %1, %8, %27, %19
  %.0 = phi i32 [ %15, %8 ], [ %31, %27 ], [ %15, %19 ], [ 65535, %1 ]
  ret i32 %.0
}